; Function Attrs: mustprogress uwtable
define internal fastcc void @"_ZSt9call_onceIZN6google8RawLog__ENS0_11LogSeverityEPKciS3_zE3$_0JEEvRSt9once_flagOT_DpOT0_"(ptr noundef nonnull align 8 dereferenceable(32) %0) unnamed_addr #0 personality ptr @__gxx_personality_v0 {
  %2 = alloca %class.anon.0, align 8
  store ptr %0, ptr %2, align 8
  %3 = tail call align 8 ptr @llvm.threadlocal.address.p0(ptr align 8 @_ZSt15__once_callable)
  store ptr %2, ptr %3, align 8
  %4 = call align 8 ptr @llvm.threadlocal.address.p0(ptr align 8 @_ZSt11__once_call)
  store ptr @"_ZZNSt9once_flag18_Prepare_executionC1IZSt9call_onceIZN6google8RawLog__ENS3_11LogSeverityEPKciS6_zE3$_0JEEvRS_OT_DpOT0_EUlvE_EERS9_ENUlvE_8__invokeEv", ptr %4, align 8
  %5 = invoke noundef i32 @pthread_once(ptr noundef nonnull @_ZN6googleL7crashedE, ptr noundef nonnull @__once_proxy)
          to label %_ZL14__gthread_oncePiPFvvE.exit unwind label %8

_ZL14__gthread_oncePiPFvvE.exit:                  ; preds = %1
  %.not = icmp eq i32 %5, 0
  br i1 %.not, label %10, label %6

6:                                                ; preds = %_ZL14__gthread_oncePiPFvvE.exit
  invoke void @_ZSt20__throw_system_errori(i32 noundef %5) #19
          to label %7 unwind label %8

7:                                                ; preds = %6
  unreachable

8:                                                ; preds = %1, %6
  %9 = landingpad { ptr, i32 }
          cleanup
  store ptr null, ptr %3, align 8
  store ptr null, ptr %4, align 8
  resume { ptr, i32 } %9

10:                                               ; preds = %_ZL14__gthread_oncePiPFvvE.exit
  store ptr null, ptr %3, align 8
  store ptr null, ptr %4, align 8
  ret void
}